; Function Attrs: mustprogress uwtable
define hidden noundef float @_ZN5zxing6qrcode8Detector19calculateModuleSizeENS_3RefINS_11ResultPointEEES4_S4_(ptr noundef nonnull readonly align 8 captures(none) dereferenceable(60) %0, ptr noundef readonly captures(none) %1, ptr noundef readonly captures(none) %2, ptr noundef readonly captures(none) %3) local_unnamed_addr #1 align 2 personality ptr @__gxx_personality_v0 {
  %5 = alloca %"class.zxing::Ref.30", align 8
  %6 = alloca %"class.zxing::Ref.30", align 8
  %7 = alloca %"class.zxing::Ref.30", align 8
  %8 = alloca %"class.zxing::Ref.30", align 8
  %9 = load ptr, ptr %1, align 8, !tbaa !82
  %.not.i.i = icmp eq ptr %9, null
  br i1 %.not.i.i, label %_ZN5zxing3RefINS_11ResultPointEEC2ERKS2_.exit, label %10

10:                                               ; preds = %4
  %11 = getelementptr inbounds nuw i8, ptr %9, i64 8
  %12 = load i32, ptr %11, align 8, !tbaa !3
  %13 = add i32 %12, 1
  store i32 %13, ptr %11, align 8, !tbaa !3
  br label %_ZN5zxing3RefINS_11ResultPointEEC2ERKS2_.exit

_ZN5zxing3RefINS_11ResultPointEEC2ERKS2_.exit:    ; preds = %4, %10
  store ptr %9, ptr %5, align 8, !tbaa !82
  %14 = load ptr, ptr %2, align 8, !tbaa !82
  %.not.i.i8 = icmp eq ptr %14, null
  br i1 %.not.i.i8, label %19, label %15

15:                                               ; preds = %_ZN5zxing3RefINS_11ResultPointEEC2ERKS2_.exit
  %16 = getelementptr inbounds nuw i8, ptr %14, i64 8
  %17 = load i32, ptr %16, align 8, !tbaa !3
  %18 = add i32 %17, 1
  store i32 %18, ptr %16, align 8, !tbaa !3
  br label %19

19:                                               ; preds = %15, %_ZN5zxing3RefINS_11ResultPointEEC2ERKS2_.exit
  store ptr %14, ptr %6, align 8, !tbaa !82
  %20 = invoke noundef float @_ZN5zxing6qrcode8Detector25calculateModuleSizeOneWayENS_3RefINS_11ResultPointEEES4_ii(ptr noundef nonnull align 8 dereferenceable(60) %0, ptr noundef nonnull %5, ptr noundef nonnull %6, i32 noundef 0, i32 noundef 0)
          to label %21 unwind label %74

21:                                               ; preds = %19
  %22 = load ptr, ptr %1, align 8, !tbaa !82
  %.not.i.i10 = icmp eq ptr %22, null
  br i1 %.not.i.i10, label %27, label %23

23:                                               ; preds = %21
  %24 = getelementptr inbounds nuw i8, ptr %22, i64 8
  %25 = load i32, ptr %24, align 8, !tbaa !3
  %26 = add i32 %25, 1
  store i32 %26, ptr %24, align 8, !tbaa !3
  br label %27

27:                                               ; preds = %23, %21
  store ptr %22, ptr %7, align 8, !tbaa !82
  %28 = load ptr, ptr %3, align 8, !tbaa !82
  %.not.i.i12 = icmp eq ptr %28, null
  br i1 %.not.i.i12, label %33, label %29

29:                                               ; preds = %27
  %30 = getelementptr inbounds nuw i8, ptr %28, i64 8
  %31 = load i32, ptr %30, align 8, !tbaa !3
  %32 = add i32 %31, 1
  store i32 %32, ptr %30, align 8, !tbaa !3
  br label %33

33:                                               ; preds = %29, %27
  store ptr %28, ptr %8, align 8, !tbaa !82
  %34 = invoke noundef float @_ZN5zxing6qrcode8Detector25calculateModuleSizeOneWayENS_3RefINS_11ResultPointEEES4_ii(ptr noundef nonnull align 8 dereferenceable(60) %0, ptr noundef nonnull %7, ptr noundef nonnull %8, i32 noundef 0, i32 noundef 0)
          to label %35 unwind label %76

35:                                               ; preds = %33
  br i1 %.not.i.i12, label %_ZN5zxing3RefINS_11ResultPointEED2Ev.exit, label %36

36:                                               ; preds = %35
  %37 = getelementptr inbounds nuw i8, ptr %28, i64 8
  %38 = load i32, ptr %37, align 8, !tbaa !3
  %39 = add i32 %38, -1
  store i32 %39, ptr %37, align 8, !tbaa !3
  %40 = icmp eq i32 %39, 0
  br i1 %40, label %41, label %_ZN5zxing3RefINS_11ResultPointEED2Ev.exit

41:                                               ; preds = %36
  store i32 -559026175, ptr %37, align 8, !tbaa !3
  %42 = load ptr, ptr %28, align 8, !tbaa !8
  %43 = getelementptr inbounds nuw i8, ptr %42, i64 8
  %44 = load ptr, ptr %43, align 8
  tail call void %44(ptr noundef nonnull align 8 dereferenceable(12) %28) #17
  br label %_ZN5zxing3RefINS_11ResultPointEED2Ev.exit

_ZN5zxing3RefINS_11ResultPointEED2Ev.exit:        ; preds = %35, %36, %41
  br i1 %.not.i.i10, label %_ZN5zxing3RefINS_11ResultPointEED2Ev.exit15, label %45

45:                                               ; preds = %_ZN5zxing3RefINS_11ResultPointEED2Ev.exit
  %46 = getelementptr inbounds nuw i8, ptr %22, i64 8
  %47 = load i32, ptr %46, align 8, !tbaa !3
  %48 = add i32 %47, -1
  store i32 %48, ptr %46, align 8, !tbaa !3
  %49 = icmp eq i32 %48, 0
  br i1 %49, label %50, label %_ZN5zxing3RefINS_11ResultPointEED2Ev.exit15

50:                                               ; preds = %45
  store i32 -559026175, ptr %46, align 8, !tbaa !3
  %51 = load ptr, ptr %22, align 8, !tbaa !8
  %52 = getelementptr inbounds nuw i8, ptr %51, i64 8
  %53 = load ptr, ptr %52, align 8
  tail call void %53(ptr noundef nonnull align 8 dereferenceable(12) %22) #17
  br label %_ZN5zxing3RefINS_11ResultPointEED2Ev.exit15

_ZN5zxing3RefINS_11ResultPointEED2Ev.exit15:      ; preds = %_ZN5zxing3RefINS_11ResultPointEED2Ev.exit, %45, %50
  br i1 %.not.i.i8, label %_ZN5zxing3RefINS_11ResultPointEED2Ev.exit17, label %54

54:                                               ; preds = %_ZN5zxing3RefINS_11ResultPointEED2Ev.exit15
  %55 = getelementptr inbounds nuw i8, ptr %14, i64 8
  %56 = load i32, ptr %55, align 8, !tbaa !3
  %57 = add i32 %56, -1
  store i32 %57, ptr %55, align 8, !tbaa !3
  %58 = icmp eq i32 %57, 0
  br i1 %58, label %59, label %_ZN5zxing3RefINS_11ResultPointEED2Ev.exit17

59:                                               ; preds = %54
  store i32 -559026175, ptr %55, align 8, !tbaa !3
  %60 = load ptr, ptr %14, align 8, !tbaa !8
  %61 = getelementptr inbounds nuw i8, ptr %60, i64 8
  %62 = load ptr, ptr %61, align 8
  tail call void %62(ptr noundef nonnull align 8 dereferenceable(12) %14) #17
  br label %_ZN5zxing3RefINS_11ResultPointEED2Ev.exit17

_ZN5zxing3RefINS_11ResultPointEED2Ev.exit17:      ; preds = %_ZN5zxing3RefINS_11ResultPointEED2Ev.exit15, %54, %59
  br i1 %.not.i.i, label %_ZN5zxing3RefINS_11ResultPointEED2Ev.exit19, label %63

63:                                               ; preds = %_ZN5zxing3RefINS_11ResultPointEED2Ev.exit17
  %64 = getelementptr inbounds nuw i8, ptr %9, i64 8
  %65 = load i32, ptr %64, align 8, !tbaa !3
  %66 = add i32 %65, -1
  store i32 %66, ptr %64, align 8, !tbaa !3
  %67 = icmp eq i32 %66, 0
  br i1 %67, label %68, label %_ZN5zxing3RefINS_11ResultPointEED2Ev.exit19

68:                                               ; preds = %63
  store i32 -559026175, ptr %64, align 8, !tbaa !3
  %69 = load ptr, ptr %9, align 8, !tbaa !8
  %70 = getelementptr inbounds nuw i8, ptr %69, i64 8
  %71 = load ptr, ptr %70, align 8
  tail call void %71(ptr noundef nonnull align 8 dereferenceable(12) %9) #17
  br label %_ZN5zxing3RefINS_11ResultPointEED2Ev.exit19

_ZN5zxing3RefINS_11ResultPointEED2Ev.exit19:      ; preds = %_ZN5zxing3RefINS_11ResultPointEED2Ev.exit17, %63, %68
  %72 = fadd float %20, %34
  %73 = fmul float %72, 5.000000e-01
  ret float %73

74:                                               ; preds = %19
  %75 = landingpad { ptr, i32 }
          cleanup
  br label %_ZN5zxing3RefINS_11ResultPointEED2Ev.exit23

76:                                               ; preds = %33
  %77 = landingpad { ptr, i32 }
          cleanup
  br i1 %.not.i.i12, label %_ZN5zxing3RefINS_11ResultPointEED2Ev.exit21, label %78

78:                                               ; preds = %76
  %79 = getelementptr inbounds nuw i8, ptr %28, i64 8
  %80 = load i32, ptr %79, align 8, !tbaa !3
  %81 = add i32 %80, -1
  store i32 %81, ptr %79, align 8, !tbaa !3
  %82 = icmp eq i32 %81, 0
  br i1 %82, label %83, label %_ZN5zxing3RefINS_11ResultPointEED2Ev.exit21

83:                                               ; preds = %78
  store i32 -559026175, ptr %79, align 8, !tbaa !3
  %84 = load ptr, ptr %28, align 8, !tbaa !8
  %85 = getelementptr inbounds nuw i8, ptr %84, i64 8
  %86 = load ptr, ptr %85, align 8
  tail call void %86(ptr noundef nonnull align 8 dereferenceable(12) %28) #17
  br label %_ZN5zxing3RefINS_11ResultPointEED2Ev.exit21

_ZN5zxing3RefINS_11ResultPointEED2Ev.exit21:      ; preds = %83, %78, %76
  br i1 %.not.i.i10, label %_ZN5zxing3RefINS_11ResultPointEED2Ev.exit23, label %87

87:                                               ; preds = %_ZN5zxing3RefINS_11ResultPointEED2Ev.exit21
  %88 = getelementptr inbounds nuw i8, ptr %22, i64 8
  %89 = load i32, ptr %88, align 8, !tbaa !3
  %90 = add i32 %89, -1
  store i32 %90, ptr %88, align 8, !tbaa !3
  %91 = icmp eq i32 %90, 0
  br i1 %91, label %92, label %_ZN5zxing3RefINS_11ResultPointEED2Ev.exit23

92:                                               ; preds = %87
  store i32 -559026175, ptr %88, align 8, !tbaa !3
  %93 = load ptr, ptr %22, align 8, !tbaa !8
  %94 = getelementptr inbounds nuw i8, ptr %93, i64 8
  %95 = load ptr, ptr %94, align 8
  tail call void %95(ptr noundef nonnull align 8 dereferenceable(12) %22) #17
  br label %_ZN5zxing3RefINS_11ResultPointEED2Ev.exit23

_ZN5zxing3RefINS_11ResultPointEED2Ev.exit23:      ; preds = %92, %87, %_ZN5zxing3RefINS_11ResultPointEED2Ev.exit21, %74
  %.pn.pn = phi { ptr, i32 } [ %75, %74 ], [ %77, %_ZN5zxing3RefINS_11ResultPointEED2Ev.exit21 ], [ %77, %87 ], [ %77, %92 ]
  br i1 %.not.i.i8, label %_ZN5zxing3RefINS_11ResultPointEED2Ev.exit25, label %96

96:                                               ; preds = %_ZN5zxing3RefINS_11ResultPointEED2Ev.exit23
  %97 = getelementptr inbounds nuw i8, ptr %14, i64 8
  %98 = load i32, ptr %97, align 8, !tbaa !3
  %99 = add i32 %98, -1
  store i32 %99, ptr %97, align 8, !tbaa !3
  %100 = icmp eq i32 %99, 0
  br i1 %100, label %101, label %_ZN5zxing3RefINS_11ResultPointEED2Ev.exit25

101:                                              ; preds = %96
  store i32 -559026175, ptr %97, align 8, !tbaa !3
  %102 = load ptr, ptr %14, align 8, !tbaa !8
  %103 = getelementptr inbounds nuw i8, ptr %102, i64 8
  %104 = load ptr, ptr %103, align 8
  tail call void %104(ptr noundef nonnull align 8 dereferenceable(12) %14) #17
  br label %_ZN5zxing3RefINS_11ResultPointEED2Ev.exit25

_ZN5zxing3RefINS_11ResultPointEED2Ev.exit25:      ; preds = %101, %96, %_ZN5zxing3RefINS_11ResultPointEED2Ev.exit23
  br i1 %.not.i.i, label %_ZN5zxing3RefINS_11ResultPointEED2Ev.exit27, label %105

105:                                              ; preds = %_ZN5zxing3RefINS_11ResultPointEED2Ev.exit25
  %106 = getelementptr inbounds nuw i8, ptr %9, i64 8
  %107 = load i32, ptr %106, align 8, !tbaa !3
  %108 = add i32 %107, -1
  store i32 %108, ptr %106, align 8, !tbaa !3
  %109 = icmp eq i32 %108, 0
  br i1 %109, label %110, label %_ZN5zxing3RefINS_11ResultPointEED2Ev.exit27

110:                                              ; preds = %105
  store i32 -559026175, ptr %106, align 8, !tbaa !3
  %111 = load ptr, ptr %9, align 8, !tbaa !8
  %112 = getelementptr inbounds nuw i8, ptr %111, i64 8
  %113 = load ptr, ptr %112, align 8
  tail call void %113(ptr noundef nonnull align 8 dereferenceable(12) %9) #17
  br label %_ZN5zxing3RefINS_11ResultPointEED2Ev.exit27

_ZN5zxing3RefINS_11ResultPointEED2Ev.exit27:      ; preds = %_ZN5zxing3RefINS_11ResultPointEED2Ev.exit25, %105, %110
  resume { ptr, i32 } %.pn.pn
}